target datalayout = "e-m:e-p270:32:32-p271:32:32-p272:64:64-i64:64-i128:128-f80:128-n8:16:32:64-S128"
target triple = "x86_64-pc-linux-gnu"

%class.Handle = type { ptr }

@_ZN10JNIHandles20_weak_global_handlesE = hidden global ptr null, align 8
@.str.6 = private unnamed_addr constant [12 x i8] c"weak global\00", align 1
@.str.7 = private unnamed_addr constant [41 x i8] c"src/hotspot/share/runtime/jniHandles.cpp\00", align 1
@.str.13 = private unnamed_addr constant [28 x i8] c"Cannot create %s JNI handle\00", align 1
@_ZN14AccessInternal15RuntimeDispatchILm598084EP7oopDescLNS_11BarrierTypeE0EE11_store_funcE = linkonce_odr hidden global ptr @_ZN14AccessInternal15RuntimeDispatchILm598084EP7oopDescLNS_11BarrierTypeE0EE10store_initEPvS2_, comdat, align 8

; Function Attrs: mustprogress nounwind uwtable
define linkonce_odr hidden void @_ZN16RawAccessBarrierILm68EE14store_internalILm68EP7oopDescEENSt9enable_ifIXsr12HasDecoratorIXT_EL_ZL12MO_UNORDEREDEEE5valueEvE4typeEPvT0_(ptr noundef %0, ptr noundef %1) #1 comdat align 2 {
  %3 = alloca ptr, align 8
  %4 = alloca ptr, align 8
  store ptr %0, ptr %3, align 8
  store ptr %1, ptr %4, align 8
  %5 = load ptr, ptr %4, align 8
  %6 = load ptr, ptr %3, align 8
  store ptr %5, ptr %6, align 8
  ret void
}

; Function Attrs: mustprogress nounwind uwtable
define linkonce_odr hidden noundef ptr @_ZN16RawAccessBarrierILm68EE15encode_internalILm68EP7oopDescEENSt9enable_ifIXntsr14AccessInternal24MustConvertCompressedOopIXT_ET0_EE5valueES5_E4typeES5_(ptr noundef %0) #1 comdat align 2 {
  %2 = alloca ptr, align 8
  store ptr %0, ptr %2, align 8
  %3 = load ptr, ptr %2, align 8
  ret ptr %3
}

; Function Attrs: mustprogress nounwind uwtable
define linkonce_odr hidden void @_ZN16RawAccessBarrierILm68EE5storeIP7oopDescEEvPvT_(ptr noundef %0, ptr noundef %1) #1 comdat align 2 {
  %3 = alloca ptr, align 8
  %4 = alloca ptr, align 8
  store ptr %0, ptr %3, align 8
  store ptr %1, ptr %4, align 8
  %5 = load ptr, ptr %3, align 8
  %6 = load ptr, ptr %4, align 8
  call void @_ZN16RawAccessBarrierILm68EE14store_internalILm68EP7oopDescEENSt9enable_ifIXsr12HasDecoratorIXT_EL_ZL12MO_UNORDEREDEEE5valueEvE4typeEPvT0_(ptr noundef %5, ptr noundef %6)
  ret void
}

; Function Attrs: mustprogress nounwind uwtable
define linkonce_odr hidden noundef ptr @_ZN16RawAccessBarrierILm68EE6encodeIP7oopDescEEN14AccessInternal11EncodedTypeILm68ET_E4typeES6_(ptr noundef %0) #1 comdat align 2 {
  %2 = alloca ptr, align 8
  store ptr %0, ptr %2, align 8
  %3 = load ptr, ptr %2, align 8
  %4 = call noundef ptr @_ZN16RawAccessBarrierILm68EE15encode_internalILm68EP7oopDescEENSt9enable_ifIXntsr14AccessInternal24MustConvertCompressedOopIXT_ET0_EE5valueES5_E4typeES5_(ptr noundef %3)
  ret ptr %4
}

; Function Attrs: mustprogress nounwind uwtable
define linkonce_odr hidden void @_ZN16RawAccessBarrierILm68EE9oop_storeIP7oopDescEEvPvT_(ptr noundef %0, ptr noundef %1) #1 comdat align 2 {
  %3 = alloca ptr, align 8
  %4 = alloca ptr, align 8
  %5 = alloca ptr, align 8
  store ptr %0, ptr %3, align 8
  store ptr %1, ptr %4, align 8
  %6 = load ptr, ptr %4, align 8
  %7 = call noundef ptr @_ZN16RawAccessBarrierILm68EE6encodeIP7oopDescEEN14AccessInternal11EncodedTypeILm68ET_E4typeES6_(ptr noundef %6)
  store ptr %7, ptr %5, align 8
  %8 = load ptr, ptr %3, align 8
  %9 = load ptr, ptr %5, align 8
  call void @_ZN16RawAccessBarrierILm68EE5storeIP7oopDescEEvPvT_(ptr noundef %8, ptr noundef %9)
  ret void
}

; Function Attrs: mustprogress nounwind uwtable
define linkonce_odr hidden void @_ZN14AccessInternal15RuntimeDispatchILm598084EP7oopDescLNS_11BarrierTypeE0EE5storeEPvS2_(ptr noundef %0, ptr noundef %1) #1 comdat align 2 {
  %3 = alloca ptr, align 8
  %4 = alloca ptr, align 8
  store ptr %0, ptr %3, align 8
  store ptr %1, ptr %4, align 8
  %5 = load ptr, ptr @_ZN14AccessInternal15RuntimeDispatchILm598084EP7oopDescLNS_11BarrierTypeE0EE11_store_funcE, align 8
  %6 = load ptr, ptr %3, align 8
  %7 = load ptr, ptr %4, align 8
  call void %5(ptr noundef %6, ptr noundef %7)
  ret void
}

; Function Attrs: mustprogress nounwind uwtable
define linkonce_odr hidden void @_ZN14AccessInternal18PreRuntimeDispatch5storeILm600132EP7oopDescEENSt9enable_ifIXaasr12HasDecoratorIXT_EL_ZL6AS_RAWEEE5valuesr14CanHardwireRawIXT_EEE5valueEvE4typeEPvT0_(ptr noundef %0, ptr noundef %1) #1 comdat align 2 {
  %3 = alloca ptr, align 8
  %4 = alloca ptr, align 8
  store ptr %0, ptr %3, align 8
  store ptr %1, ptr %4, align 8
  %5 = load ptr, ptr %3, align 8
  %6 = load ptr, ptr %4, align 8
  call void @_ZN16RawAccessBarrierILm68EE9oop_storeIP7oopDescEEvPvT_(ptr noundef %5, ptr noundef %6)
  ret void
}

; Function Attrs: mustprogress nounwind uwtable
define linkonce_odr hidden noundef zeroext i1 @_ZN14AccessInternal18PreRuntimeDispatch22is_hardwired_primitiveILm598084EEEbv() #1 comdat align 2 {
  ret i1 false
}

; Function Attrs: mustprogress nounwind uwtable
define linkonce_odr hidden void @_ZN14AccessInternal18PreRuntimeDispatch5storeILm598084EP7oopDescEENSt9enable_ifIXntsr12HasDecoratorIXT_EL_ZL6AS_RAWEEE5valueEvE4typeEPvT0_(ptr noundef %0, ptr noundef %1) #1 comdat align 2 {
  %3 = alloca ptr, align 8
  %4 = alloca ptr, align 8
  %5 = alloca i64, align 8
  store ptr %0, ptr %3, align 8
  store ptr %1, ptr %4, align 8
  %6 = call noundef zeroext i1 @_ZN14AccessInternal18PreRuntimeDispatch22is_hardwired_primitiveILm598084EEEbv()
  br i1 %6, label %7, label %10

7:                                                ; preds = %2
  store i64 600132, ptr %5, align 8
  %8 = load ptr, ptr %3, align 8
  %9 = load ptr, ptr %4, align 8
  call void @_ZN14AccessInternal18PreRuntimeDispatch5storeILm600132EP7oopDescEENSt9enable_ifIXaasr12HasDecoratorIXT_EL_ZL6AS_RAWEEE5valuesr14CanHardwireRawIXT_EEE5valueEvE4typeEPvT0_(ptr noundef %8, ptr noundef %9)
  br label %13

10:                                               ; preds = %2
  %11 = load ptr, ptr %3, align 8
  %12 = load ptr, ptr %4, align 8
  call void @_ZN14AccessInternal15RuntimeDispatchILm598084EP7oopDescLNS_11BarrierTypeE0EE5storeEPvS2_(ptr noundef %11, ptr noundef %12)
  br label %13

13:                                               ; preds = %10, %7
  ret void
}

; Function Attrs: mustprogress nounwind uwtable
define linkonce_odr hidden void @_ZN14AccessInternal18store_reduce_typesILm598084EP7oopDescEEvPT0_S3_(ptr noundef %0, ptr noundef %1) #1 comdat {
  %3 = alloca ptr, align 8
  %4 = alloca ptr, align 8
  store ptr %0, ptr %3, align 8
  store ptr %1, ptr %4, align 8
  %5 = load ptr, ptr %3, align 8
  %6 = load ptr, ptr %4, align 8
  call void @_ZN14AccessInternal18PreRuntimeDispatch5storeILm598084EP7oopDescEENSt9enable_ifIXntsr12HasDecoratorIXT_EL_ZL6AS_RAWEEE5valueEvE4typeEPvT0_(ptr noundef %5, ptr noundef %6)
  ret void
}

; Function Attrs: mustprogress nounwind uwtable
define internal void @_ZN14AccessInternalL12verify_typesILm589828EP7oopDescEEvv() #1 {
  ret void
}

; Function Attrs: mustprogress nounwind uwtable
define linkonce_odr hidden void @_ZN6AccessILm589824EE17verify_decoratorsILm16645824EEEvv() #1 comdat align 2 {
  %1 = alloca i64, align 8
  %2 = alloca i64, align 8
  %3 = alloca i64, align 8
  %4 = alloca i64, align 8
  store i64 0, ptr %1, align 8
  store i64 65536, ptr %2, align 8
  store i64 0, ptr %3, align 8
  store i64 524288, ptr %4, align 8
  ret void
}

; Function Attrs: mustprogress nounwind uwtable
define linkonce_odr hidden void @_ZN14AccessInternal5storeILm589828EP7oopDescS2_EEvPT0_T1_(ptr noundef %0, ptr noundef %1) #1 comdat {
  %3 = alloca ptr, align 8
  %4 = alloca ptr, align 8
  %5 = alloca ptr, align 8
  %6 = alloca i64, align 8
  store ptr %0, ptr %3, align 8
  store ptr %1, ptr %4, align 8
  call void @_ZN14AccessInternalL12verify_typesILm589828EP7oopDescEEvv()
  %7 = load ptr, ptr %4, align 8
  store ptr %7, ptr %5, align 8
  store i64 598084, ptr %6, align 8
  %8 = load ptr, ptr %3, align 8
  %9 = load ptr, ptr %5, align 8
  call void @_ZN14AccessInternal18store_reduce_typesILm598084EP7oopDescEEvPT0_S3_(ptr noundef %8, ptr noundef %9)
  ret void
}

; Function Attrs: mustprogress nounwind uwtable
define linkonce_odr hidden void @_ZN6AccessILm589824EE21verify_oop_decoratorsILm1728EEEvv() #1 comdat align 2 {
  %1 = alloca i64, align 8
  store i64 16644096, ptr %1, align 8
  call void @_ZN6AccessILm589824EE17verify_decoratorsILm16645824EEEvv()
  ret void
}

; Function Attrs: mustprogress nounwind uwtable
define linkonce_odr hidden noundef ptr @_ZNK6Handle3objEv(ptr noundef nonnull align 8 dereferenceable(8) %0) #1 comdat align 2 {
  %2 = alloca ptr, align 8
  store ptr %0, ptr %2, align 8
  %3 = load ptr, ptr %2, align 8
  %4 = getelementptr inbounds %class.Handle, ptr %3, i32 0, i32 0
  %5 = load ptr, ptr %4, align 8
  %6 = icmp eq ptr %5, null
  br i1 %6, label %7, label %8

7:                                                ; preds = %1
  br label %12

8:                                                ; preds = %1
  %9 = getelementptr inbounds %class.Handle, ptr %3, i32 0, i32 0
  %10 = load ptr, ptr %9, align 8
  %11 = load ptr, ptr %10, align 8
  br label %12

12:                                               ; preds = %8, %7
  %13 = phi ptr [ null, %7 ], [ %11, %8 ]
  ret ptr %13
}

; Function Attrs: mustprogress nounwind uwtable
define internal void @_ZL32report_handle_allocation_failureN17AllocFailStrategy13AllocFailEnumEPKc(i32 noundef %0, ptr noundef %1) #1 {
  %3 = alloca i32, align 4
  %4 = alloca ptr, align 8
  store i32 %0, ptr %3, align 4
  store ptr %1, ptr %4, align 8
  %5 = load i32, ptr %3, align 4
  %6 = icmp eq i32 %5, 0
  br i1 %6, label %7, label %11

7:                                                ; preds = %2
  br label %8

8:                                                ; preds = %7
  %9 = load ptr, ptr %4, align 8
  call void (ptr, i32, i64, i32, ptr, ...) @_Z23report_vm_out_of_memoryPKcim11VMErrorTypeS0_z(ptr noundef @.str.7, i32 noundef 79, i64 noundef 8, i32 noundef -536870911, ptr noundef @.str.13, ptr noundef %9) #7
  unreachable

10:                                               ; No predecessors!
  br label %12

11:                                               ; preds = %2
  br label %12

12:                                               ; preds = %11, %10
  ret void
}

; Function Attrs: mustprogress nounwind uwtable
define linkonce_odr hidden void @_ZN6AccessILm589824EE9oop_storeIP7oopDescS3_EEvPT_T0_(ptr noundef %0, ptr noundef %1) #1 comdat align 2 {
  %3 = alloca ptr, align 8
  %4 = alloca ptr, align 8
  %5 = alloca ptr, align 8
  store ptr %0, ptr %3, align 8
  store ptr %1, ptr %4, align 8
  call void @_ZN6AccessILm589824EE21verify_oop_decoratorsILm1728EEEvv()
  %6 = load ptr, ptr %4, align 8
  store ptr %6, ptr %5, align 8
  %7 = load ptr, ptr %3, align 8
  %8 = load ptr, ptr %5, align 8
  call void @_ZN14AccessInternal5storeILm589828EP7oopDescS2_EEvPT0_T1_(ptr noundef %7, ptr noundef %8)
  ret void
}

; Function Attrs: mustprogress nounwind uwtable
define linkonce_odr hidden noundef ptr @_ZNK6HandleclEv(ptr noundef nonnull align 8 dereferenceable(8) %0) #1 comdat align 2 {
  %2 = alloca ptr, align 8
  store ptr %0, ptr %2, align 8
  %3 = load ptr, ptr %2, align 8
  %4 = call noundef ptr @_ZNK6Handle3objEv(ptr noundef nonnull align 8 dereferenceable(8) %3)
  ret ptr %4
}

; Function Attrs: mustprogress nounwind uwtable
define hidden noundef ptr @_ZN10JNIHandles19weak_global_handlesEv() #1 align 2 {
  %1 = load ptr, ptr @_ZN10JNIHandles20_weak_global_handlesE, align 8
  ret ptr %1
}

; Function Attrs: mustprogress nounwind uwtable
define linkonce_odr hidden noundef zeroext i1 @_ZNK6Handle7is_nullEv(ptr noundef nonnull align 8 dereferenceable(8) %0) #1 comdat align 2 {
  %2 = alloca ptr, align 8
  store ptr %0, ptr %2, align 8
  %3 = load ptr, ptr %2, align 8
  %4 = getelementptr inbounds %class.Handle, ptr %3, i32 0, i32 0
  %5 = load ptr, ptr %4, align 8
  %6 = icmp eq ptr %5, null
  ret i1 %6
}

; Function Attrs: mustprogress nounwind uwtable
define hidden noundef ptr @_ZN10JNIHandles16make_weak_globalE6HandleN17AllocFailStrategy13AllocFailEnumE(ptr %0, i32 noundef %1) #1 align 2 {
  %3 = alloca %class.Handle, align 8
  %4 = alloca i32, align 4
  %5 = alloca ptr, align 8
  %6 = alloca ptr, align 8
  %7 = alloca ptr, align 8
  %8 = getelementptr inbounds %class.Handle, ptr %3, i32 0, i32 0
  store ptr %0, ptr %8, align 8
  store i32 %1, ptr %4, align 4
  store ptr null, ptr %5, align 8
  %9 = call noundef zeroext i1 @_ZNK6Handle7is_nullEv(ptr noundef nonnull align 8 dereferenceable(8) %3)
  br i1 %9, label %24, label %10

10:                                               ; preds = %2
  %11 = call noundef ptr @_ZN10JNIHandles19weak_global_handlesEv()
  %12 = call noundef ptr @_ZN10OopStorage8allocateEv(ptr noundef nonnull align 8 dereferenceable(126) %11)
  store ptr %12, ptr %6, align 8
  %13 = load ptr, ptr %6, align 8
  %14 = icmp ne ptr %13, null
  br i1 %14, label %15, label %21

15:                                               ; preds = %10
  %16 = load ptr, ptr %6, align 8
  %17 = call noundef ptr @_ZNK6HandleclEv(ptr noundef nonnull align 8 dereferenceable(8) %3)
  call void @_ZN6AccessILm589824EE9oop_storeIP7oopDescS3_EEvPT_T0_(ptr noundef %16, ptr noundef %17)
  %18 = load ptr, ptr %6, align 8
  %19 = getelementptr inbounds i8, ptr %18, i64 1
  store ptr %19, ptr %7, align 8
  %20 = load ptr, ptr %7, align 8
  store ptr %20, ptr %5, align 8
  br label %23

21:                                               ; preds = %10
  %22 = load i32, ptr %4, align 4
  call void @_ZL32report_handle_allocation_failureN17AllocFailStrategy13AllocFailEnumEPKc(i32 noundef %22, ptr noundef @.str.6)
  br label %23

23:                                               ; preds = %21, %15
  br label %24

24:                                               ; preds = %23, %2
  %25 = load ptr, ptr %5, align 8
  ret ptr %25
}