; Function Attrs: mustprogress nounwind uwtable
define hidden noundef ptr @_ZN10JNIHandles16make_weak_globalE6HandleN17AllocFailStrategy13AllocFailEnumE(ptr readonly %0, i32 noundef %1) local_unnamed_addr #1 align 2 {
  %3 = icmp eq ptr %0, null
  br i1 %3, label %_ZL32report_handle_allocation_failureN17AllocFailStrategy13AllocFailEnumEPKc.exit, label %4

4:                                                ; preds = %2
  %5 = load ptr, ptr @_ZN10JNIHandles20_weak_global_handlesE, align 8
  %6 = tail call noundef ptr @_ZN10OopStorage8allocateEv(ptr noundef nonnull align 8 dereferenceable(126) %5) #11
  %.not = icmp eq ptr %6, null
  br i1 %.not, label %10, label %_ZNK6HandleclEv.exit

_ZNK6HandleclEv.exit:                             ; preds = %4
  %7 = load ptr, ptr %0, align 8
  %8 = load ptr, ptr @_ZN14AccessInternal15RuntimeDispatchILm598084EP7oopDescLNS_11BarrierTypeE0EE11_store_funcE, align 8
  tail call void %8(ptr noundef nonnull %6, ptr noundef %7) #11
  %9 = getelementptr inbounds i8, ptr %6, i64 1
  br label %_ZL32report_handle_allocation_failureN17AllocFailStrategy13AllocFailEnumEPKc.exit

10:                                               ; preds = %4
  %11 = icmp eq i32 %1, 0
  br i1 %11, label %12, label %_ZL32report_handle_allocation_failureN17AllocFailStrategy13AllocFailEnumEPKc.exit

12:                                               ; preds = %10
  tail call void (ptr, i32, i64, i32, ptr, ...) @_Z23report_vm_out_of_memoryPKcim11VMErrorTypeS0_z(ptr noundef nonnull @.str.7, i32 noundef 79, i64 noundef 8, i32 noundef -536870911, ptr noundef nonnull @.str.13, ptr noundef nonnull @.str.6) #12
  unreachable

_ZL32report_handle_allocation_failureN17AllocFailStrategy13AllocFailEnumEPKc.exit: ; preds = %10, %_ZNK6HandleclEv.exit, %2
  %.0 = phi ptr [ null, %2 ], [ %9, %_ZNK6HandleclEv.exit ], [ null, %10 ]
  ret ptr %.0
}